; Function Attrs: mustprogress nofree norecurse nosync nounwind willreturn memory(argmem: read) uwtable
define noundef i32 @_ZNK6icu_778Calendar16internalGetMonthEiR10UErrorCode(ptr noundef nonnull readonly align 8 captures(none) dereferenceable(192) %0, i32 noundef %1, ptr nonnull readnone align 4 captures(none) %2) unnamed_addr #18 align 2 {
  %4 = tail call noundef i32 @_ZNK6icu_778Calendar13resolveFieldsEPA12_A8_Ki(ptr noundef nonnull align 8 dereferenceable(192) %0, ptr noundef nonnull @_ZN6icu_778Calendar16kMonthPrecedenceE)
  %5 = icmp eq i32 %4, 2
  br i1 %5, label %6, label %13

6:                                                ; preds = %3
  %7 = getelementptr inbounds nuw i8, ptr %0, i64 106
  %8 = load i8, ptr %7, align 2, !tbaa !47
  %9 = icmp sgt i8 %8, 0
  br i1 %9, label %10, label %_ZNK6icu_778Calendar11internalGetE19UCalendarDateFieldsi.exit

10:                                               ; preds = %6
  %11 = getelementptr inbounds nuw i8, ptr %0, i64 16
  %12 = load i32, ptr %11, align 8, !tbaa !12
  br label %_ZNK6icu_778Calendar11internalGetE19UCalendarDateFieldsi.exit

13:                                               ; preds = %3
  %14 = getelementptr inbounds nuw i8, ptr %0, i64 100
  %15 = load i32, ptr %14, align 4, !tbaa !12
  br label %_ZNK6icu_778Calendar11internalGetE19UCalendarDateFieldsi.exit

_ZNK6icu_778Calendar11internalGetE19UCalendarDateFieldsi.exit: ; preds = %10, %6, %13
  %.0 = phi i32 [ %15, %13 ], [ %12, %10 ], [ %1, %6 ]
  ret i32 %.0
}